target datalayout = "e-m:e-p270:32:32-p271:32:32-p272:64:64-i64:64-i128:128-f80:128-n8:16:32:64-S128"
target triple = "x86_64-pc-linux-gnu"

%struct._zval_struct = type { %union._zend_value, %union.anon.3, %union.anon.6 }
%union._zend_value = type { i64 }
%union.anon.3 = type { i32 }
%union.anon.6 = type { i32 }
%struct._zend_execute_data = type { ptr, ptr, ptr, ptr, %struct._zval_struct, ptr, ptr, ptr, ptr }

; Function Attrs: nounwind uwtable
define hidden void @zif_getmypid(ptr noundef %0, ptr noundef %1) #0 {
  %3 = alloca ptr, align 8
  %4 = alloca ptr, align 8
  %5 = alloca i64, align 8
  %6 = alloca ptr, align 8
  store ptr %0, ptr %3, align 8
  store ptr %1, ptr %4, align 8
  br label %7

7:                                                ; preds = %2
  %8 = load ptr, ptr %3, align 8
  %9 = getelementptr inbounds %struct._zend_execute_data, ptr %8, i32 0, i32 4
  %10 = getelementptr inbounds %struct._zval_struct, ptr %9, i32 0, i32 2
  %11 = load i32, ptr %10, align 4
  %12 = icmp ne i32 %11, 0
  %13 = xor i1 %12, true
  %14 = xor i1 %13, true
  %15 = zext i1 %14 to i32
  %16 = sext i32 %15 to i64
  %17 = icmp ne i64 %16, 0
  br i1 %17, label %18, label %19

18:                                               ; preds = %7
  call void @zend_wrong_parameters_none_error()
  br label %43

19:                                               ; preds = %7
  br label %20

20:                                               ; preds = %19
  %21 = call i32 @getpid() #3
  %22 = sext i32 %21 to i64
  store i64 %22, ptr %5, align 8
  %23 = load i64, ptr %5, align 8
  %24 = icmp slt i64 %23, 0
  br i1 %24, label %25, label %32

25:                                               ; preds = %20
  br label %26

26:                                               ; preds = %25
  br label %27

27:                                               ; preds = %26
  %28 = load ptr, ptr %4, align 8
  %29 = getelementptr inbounds %struct._zval_struct, ptr %28, i32 0, i32 1
  store i32 2, ptr %29, align 8
  br label %30

30:                                               ; preds = %27
  br label %43

31:                                               ; No predecessors!
  br label %43

32:                                               ; preds = %20
  br label %33

33:                                               ; preds = %32
  br label %34

34:                                               ; preds = %33
  %35 = load ptr, ptr %4, align 8
  store ptr %35, ptr %6, align 8
  %36 = load i64, ptr %5, align 8
  %37 = load ptr, ptr %6, align 8
  %38 = getelementptr inbounds %struct._zval_struct, ptr %37, i32 0, i32 0
  store i64 %36, ptr %38, align 8
  %39 = load ptr, ptr %6, align 8
  %40 = getelementptr inbounds %struct._zval_struct, ptr %39, i32 0, i32 1
  store i32 4, ptr %40, align 8
  br label %41

41:                                               ; preds = %34
  br label %43

42:                                               ; No predecessors!
  br label %43

43:                                               ; preds = %42, %41, %31, %30, %18
  ret void
}