; Function Attrs: nounwind uwtable
define hidden void @zif_getmypid(ptr nocapture noundef readonly %0, ptr nocapture noundef writeonly %1) local_unnamed_addr #0 {
  %3 = getelementptr inbounds i8, ptr %0, i64 44
  %4 = load i32, ptr %3, align 4
  %.not = icmp eq i32 %4, 0
  br i1 %.not, label %6, label %5

5:                                                ; preds = %2
  tail call void @zend_wrong_parameters_none_error() #3
  br label %14

6:                                                ; preds = %2
  %7 = tail call i32 @getpid() #3
  %8 = icmp slt i32 %7, 0
  br i1 %8, label %9, label %11

9:                                                ; preds = %6
  %10 = getelementptr inbounds i8, ptr %1, i64 8
  store i32 2, ptr %10, align 8
  br label %14

11:                                               ; preds = %6
  %12 = zext nneg i32 %7 to i64
  store i64 %12, ptr %1, align 8
  %13 = getelementptr inbounds i8, ptr %1, i64 8
  store i32 4, ptr %13, align 8
  br label %14

14:                                               ; preds = %11, %9, %5
  ret void
}